target datalayout = "e-m:e-p270:32:32-p271:32:32-p272:64:64-i64:64-i128:128-f80:128-n8:16:32:64-S128"
target triple = "x86_64-pc-linux-gnu"

%struct.expert_field = type { i32, i32 }
%struct._e_guid_t = type { i32, i16, i16, [8 x i8] }
%struct._value_string = type { i32, ptr }
%struct._packet_info = type { ptr, ptr, i32, i32, %struct.nstime_t, %struct.nstime_t, %struct.nstime_t, i8, ptr, ptr, ptr, ptr, %struct._address, %struct._address, %struct._address, %struct._address, %struct._address, %struct._address, i32, ptr, i8, [3 x i8], %struct.anon, i32, i32, i32, i32, ptr, i8, ptr, ptr, i16, i16, i32, i32, i16, i32, i32, ptr, ptr, ptr, i8, i8, i16, i16, i16, i32, i16, i16, ptr, ptr, ptr, ptr, ptr, i32, i32 }
%struct.nstime_t = type { i64, i32 }
%struct._address = type { i32, i32, ptr, ptr }
%struct.anon = type { i8, [3 x i8] }
%struct._dcerpc_info = type { ptr, i32, i64, i8, i8, i8, i32, i32, i32, i32, i32, i32, i32, i32, ptr, ptr, ptr, ptr, %struct.anon.0 }
%struct.anon.0 = type { i8, ptr, ptr, ptr, i8 }
%struct._dcerpc_call_value = type { %struct._e_guid_t, i16, %struct._e_guid_t, i16, i32, %struct.nstime_t, i32, i32, ptr, ptr, ptr, i32 }
%struct._proto_node = type { ptr, ptr, ptr, ptr, ptr, ptr, ptr }
%struct.field_info = type { ptr, i32, i32, i32, i32, i32, i32, ptr, ptr, ptr, i32, i32 }
%struct.cba_connection_s = type { ptr, ptr, ptr, i32, i32, i32, i32, i32, i16, i32, i32, ptr, i32, i16, ptr, i16, i16, i16 }
%struct.server_connect_call_s = type { i32, ptr, ptr }

@hf_cba_acco_dcom_call = internal global i32 0, align 4
@ei_cba_acco_no_request_info = internal global %struct.expert_field zeroinitializer, align 4
@ei_cba_acco_disconnect = internal global %struct.expert_field zeroinitializer, align 4
@proto_ICBAAccoMgt = internal global i32 0, align 4
@dcom_hresult_vals = external constant [0 x %struct._value_string], align 8
@.str.259 = private unnamed_addr constant [17 x i8] c"Unknown (0x%08x)\00", align 1
@.str.262 = private unnamed_addr constant [15 x i8] c": Cnt=%u -> %s\00", align 1
@.str.318 = private unnamed_addr constant [47 x i8] c"connection_disconnect#%u: already disconnected\00", align 1

; Function Attrs: null_pointer_is_valid sspstrong uwtable
define internal void @cba_connection_disconnect(ptr noundef %0, ptr noundef %1) #0 {
  %3 = alloca ptr, align 8
  %4 = alloca ptr, align 8
  store ptr %0, ptr %3, align 8
  store ptr %1, ptr %4, align 8
  %5 = load ptr, ptr %4, align 8
  %6 = getelementptr inbounds nuw %struct.cba_connection_s, ptr %5, i32 0, i32 4
  %7 = load i32, ptr %6, align 4
  %8 = icmp eq i32 %7, 0
  br i1 %8, label %9, label %15

9:                                                ; preds = %2
  %10 = load ptr, ptr %3, align 8
  %11 = getelementptr inbounds nuw %struct._packet_info, ptr %10, i32 0, i32 3
  %12 = load i32, ptr %11, align 4
  %13 = load ptr, ptr %4, align 8
  %14 = getelementptr inbounds nuw %struct.cba_connection_s, ptr %13, i32 0, i32 4
  store i32 %12, ptr %14, align 4
  br label %15

15:                                               ; preds = %9, %2
  %16 = load ptr, ptr %4, align 8
  %17 = getelementptr inbounds nuw %struct.cba_connection_s, ptr %16, i32 0, i32 4
  %18 = load i32, ptr %17, align 4
  %19 = load ptr, ptr %3, align 8
  %20 = getelementptr inbounds nuw %struct._packet_info, ptr %19, i32 0, i32 3
  %21 = load i32, ptr %20, align 4
  %22 = icmp ne i32 %18, %21
  br i1 %22, label %23, label %29

23:                                               ; preds = %15
  %24 = load ptr, ptr %3, align 8
  %25 = load ptr, ptr %4, align 8
  %26 = getelementptr inbounds nuw %struct.cba_connection_s, ptr %25, i32 0, i32 4
  %27 = load i32, ptr %26, align 4
  %28 = call ptr (ptr, ptr, ptr, ptr, ...) @expert_add_info_format(ptr noundef %24, ptr noundef null, ptr noundef @ei_cba_acco_disconnect, ptr noundef @.str.318, i32 noundef %27)
  br label %29

29:                                               ; preds = %23, %15
  ret void
}

; Function Attrs: inlinehint nounwind null_pointer_is_valid sspstrong uwtable
define internal void @proto_item_set_generated(ptr noundef %0) #10 {
  %2 = alloca ptr, align 8
  store ptr %0, ptr %2, align 8
  %3 = load ptr, ptr %2, align 8
  %4 = icmp ne ptr %3, null
  br i1 %4, label %5, label %24

5:                                                ; preds = %1
  br label %6

6:                                                ; preds = %5
  %7 = load ptr, ptr %2, align 8
  %8 = getelementptr inbounds nuw %struct._proto_node, ptr %7, i32 0, i32 5
  %9 = load ptr, ptr %8, align 8
  %10 = icmp ne ptr %9, null
  br i1 %10, label %11, label %22

11:                                               ; preds = %6
  %12 = load ptr, ptr %2, align 8
  %13 = getelementptr inbounds nuw %struct._proto_node, ptr %12, i32 0, i32 5
  %14 = load ptr, ptr %13, align 8
  %15 = getelementptr inbounds nuw %struct.field_info, ptr %14, i32 0, i32 6
  %16 = load i32, ptr %15, align 4
  %17 = or i32 %16, 2
  %18 = load ptr, ptr %2, align 8
  %19 = getelementptr inbounds nuw %struct._proto_node, ptr %18, i32 0, i32 5
  %20 = load ptr, ptr %19, align 8
  %21 = getelementptr inbounds nuw %struct.field_info, ptr %20, i32 0, i32 6
  store i32 %17, ptr %21, align 4
  br label %22

22:                                               ; preds = %11, %6
  br label %23

23:                                               ; preds = %22
  br label %24

24:                                               ; preds = %23, %1
  ret void
}

; Function Attrs: null_pointer_is_valid sspstrong uwtable
define internal i32 @dissect_ICBAAccoServer_Disconnect_resp(ptr noundef %0, i32 noundef %1, ptr noundef %2, ptr noundef %3, ptr noundef %4, ptr noundef %5) #0 {
  %7 = alloca ptr, align 8
  %8 = alloca i32, align 4
  %9 = alloca ptr, align 8
  %10 = alloca ptr, align 8
  %11 = alloca ptr, align 8
  %12 = alloca ptr, align 8
  %13 = alloca i32, align 4
  %14 = alloca i32, align 4
  %15 = alloca i32, align 4
  %16 = alloca i32, align 4
  %17 = alloca i32, align 4
  %18 = alloca ptr, align 8
  %19 = alloca ptr, align 8
  %20 = alloca ptr, align 8
  store ptr %0, ptr %7, align 8
  store i32 %1, ptr %8, align 4
  store ptr %2, ptr %9, align 8
  store ptr %3, ptr %10, align 8
  store ptr %4, ptr %11, align 8
  store ptr %5, ptr %12, align 8
  call void @llvm.lifetime.start.p0(i64 4, ptr %13) #12
  call void @llvm.lifetime.start.p0(i64 4, ptr %14) #12
  call void @llvm.lifetime.start.p0(i64 4, ptr %15) #12
  store i32 0, ptr %15, align 4
  call void @llvm.lifetime.start.p0(i64 4, ptr %16) #12
  call void @llvm.lifetime.start.p0(i64 4, ptr %17) #12
  call void @llvm.lifetime.start.p0(i64 8, ptr %18) #12
  call void @llvm.lifetime.start.p0(i64 8, ptr %19) #12
  call void @llvm.lifetime.start.p0(i64 8, ptr %20) #12
  %21 = load ptr, ptr %11, align 8
  %22 = getelementptr inbounds nuw %struct._dcerpc_info, ptr %21, i32 0, i32 14
  %23 = load ptr, ptr %22, align 8
  %24 = getelementptr inbounds nuw %struct._dcerpc_call_value, ptr %23, i32 0, i32 9
  %25 = load ptr, ptr %24, align 8
  store ptr %25, ptr %20, align 8
  %26 = load ptr, ptr %7, align 8
  %27 = load i32, ptr %8, align 4
  %28 = load ptr, ptr %9, align 8
  %29 = load ptr, ptr %10, align 8
  %30 = load ptr, ptr %11, align 8
  %31 = load ptr, ptr %12, align 8
  %32 = call i32 @dissect_dcom_that(ptr noundef %26, i32 noundef %27, ptr noundef %28, ptr noundef %29, ptr noundef %30, ptr noundef %31)
  store i32 %32, ptr %8, align 4
  %33 = load ptr, ptr %20, align 8
  %34 = icmp eq ptr %33, null
  br i1 %34, label %35, label %38

35:                                               ; preds = %6
  %36 = load ptr, ptr %9, align 8
  %37 = call ptr @expert_add_info(ptr noundef %36, ptr noundef null, ptr noundef @ei_cba_acco_no_request_info)
  br label %38

38:                                               ; preds = %35, %6
  %39 = load ptr, ptr %10, align 8
  %40 = load i32, ptr @hf_cba_acco_dcom_call, align 4
  %41 = load ptr, ptr %7, align 8
  %42 = load i32, ptr %8, align 4
  %43 = call ptr @proto_tree_add_boolean(ptr noundef %39, i32 noundef %40, ptr noundef %41, i32 noundef %42, i32 noundef 0, i64 noundef 0)
  store ptr %43, ptr %18, align 8
  %44 = load ptr, ptr %18, align 8
  call void @proto_item_set_generated(ptr noundef %44)
  %45 = load ptr, ptr %9, align 8
  %46 = getelementptr inbounds nuw %struct._packet_info, ptr %45, i32 0, i32 51
  %47 = load ptr, ptr %46, align 8
  %48 = load ptr, ptr %9, align 8
  %49 = load i32, ptr @proto_ICBAAccoMgt, align 4
  call void @p_add_proto_data(ptr noundef %47, ptr noundef %48, i32 noundef %49, i32 noundef 0, ptr noundef inttoptr (i64 1 to ptr))
  %50 = load ptr, ptr %7, align 8
  %51 = load i32, ptr %8, align 4
  %52 = load ptr, ptr %9, align 8
  %53 = load ptr, ptr %10, align 8
  %54 = load ptr, ptr %11, align 8
  %55 = load ptr, ptr %12, align 8
  %56 = call i32 @dissect_dcom_dcerpc_pointer(ptr noundef %50, i32 noundef %51, ptr noundef %52, ptr noundef %53, ptr noundef %54, ptr noundef %55, ptr noundef %14)
  store i32 %56, ptr %8, align 4
  %57 = load i32, ptr %14, align 4
  %58 = icmp ne i32 %57, 0
  br i1 %58, label %59, label %108

59:                                               ; preds = %38
  %60 = load ptr, ptr %7, align 8
  %61 = load i32, ptr %8, align 4
  %62 = load ptr, ptr %9, align 8
  %63 = load ptr, ptr %10, align 8
  %64 = load ptr, ptr %11, align 8
  %65 = load ptr, ptr %12, align 8
  %66 = call i32 @dissect_dcom_dcerpc_array_size(ptr noundef %60, i32 noundef %61, ptr noundef %62, ptr noundef %63, ptr noundef %64, ptr noundef %65, ptr noundef %15)
  store i32 %66, ptr %8, align 4
  store i32 1, ptr %16, align 4
  %67 = load i32, ptr %15, align 4
  store i32 %67, ptr %17, align 4
  br label %68

68:                                               ; preds = %104, %59
  %69 = load i32, ptr %17, align 4
  %70 = add i32 %69, -1
  store i32 %70, ptr %17, align 4
  %71 = icmp ne i32 %69, 0
  br i1 %71, label %72, label %107

72:                                               ; preds = %68
  %73 = load ptr, ptr %7, align 8
  %74 = load i32, ptr %8, align 4
  %75 = load ptr, ptr %9, align 8
  %76 = load ptr, ptr %10, align 8
  %77 = load ptr, ptr %11, align 8
  %78 = load ptr, ptr %12, align 8
  %79 = load i32, ptr %16, align 4
  %80 = call i32 @dissect_dcom_indexed_HRESULT(ptr noundef %73, i32 noundef %74, ptr noundef %75, ptr noundef %76, ptr noundef %77, ptr noundef %78, ptr noundef %13, i32 noundef %79)
  store i32 %80, ptr %8, align 4
  %81 = load ptr, ptr %20, align 8
  %82 = icmp ne ptr %81, null
  br i1 %82, label %83, label %104

83:                                               ; preds = %72
  %84 = load i32, ptr %16, align 4
  %85 = load ptr, ptr %20, align 8
  %86 = getelementptr inbounds nuw %struct.server_connect_call_s, ptr %85, i32 0, i32 0
  %87 = load i32, ptr %86, align 8
  %88 = icmp ule i32 %84, %87
  br i1 %88, label %89, label %104

89:                                               ; preds = %83
  %90 = load ptr, ptr %20, align 8
  %91 = getelementptr inbounds nuw %struct.server_connect_call_s, ptr %90, i32 0, i32 2
  %92 = load ptr, ptr %91, align 8
  %93 = load i32, ptr %16, align 4
  %94 = sub i32 %93, 1
  %95 = zext i32 %94 to i64
  %96 = getelementptr ptr, ptr %92, i64 %95
  %97 = load ptr, ptr %96, align 8
  store ptr %97, ptr %19, align 8
  %98 = load ptr, ptr %19, align 8
  %99 = icmp ne ptr %98, null
  br i1 %99, label %100, label %103

100:                                              ; preds = %89
  %101 = load ptr, ptr %9, align 8
  %102 = load ptr, ptr %19, align 8
  call void @cba_connection_disconnect(ptr noundef %101, ptr noundef %102)
  br label %103

103:                                              ; preds = %100, %89
  br label %104

104:                                              ; preds = %103, %83, %72
  %105 = load i32, ptr %16, align 4
  %106 = add i32 %105, 1
  store i32 %106, ptr %16, align 4
  br label %68, !llvm.loop !33

107:                                              ; preds = %68
  br label %108

108:                                              ; preds = %107, %38
  %109 = load ptr, ptr %7, align 8
  %110 = load i32, ptr %8, align 4
  %111 = load ptr, ptr %9, align 8
  %112 = load ptr, ptr %10, align 8
  %113 = load ptr, ptr %11, align 8
  %114 = load ptr, ptr %12, align 8
  %115 = call i32 @dissect_dcom_HRESULT(ptr noundef %109, i32 noundef %110, ptr noundef %111, ptr noundef %112, ptr noundef %113, ptr noundef %114, ptr noundef %13)
  store i32 %115, ptr %8, align 4
  %116 = load ptr, ptr %9, align 8
  %117 = getelementptr inbounds nuw %struct._packet_info, ptr %116, i32 0, i32 1
  %118 = load ptr, ptr %117, align 8
  %119 = load i32, ptr %15, align 4
  %120 = load i32, ptr %13, align 4
  %121 = call ptr @val_to_str(i32 noundef %120, ptr noundef @dcom_hresult_vals, ptr noundef @.str.259)
  call void (ptr, i32, ptr, ...) @col_append_fstr(ptr noundef %118, i32 noundef 25, ptr noundef @.str.262, i32 noundef %119, ptr noundef %121)
  %122 = load i32, ptr %8, align 4
  call void @llvm.lifetime.end.p0(i64 8, ptr %20) #12
  call void @llvm.lifetime.end.p0(i64 8, ptr %19) #12
  call void @llvm.lifetime.end.p0(i64 8, ptr %18) #12
  call void @llvm.lifetime.end.p0(i64 4, ptr %17) #12
  call void @llvm.lifetime.end.p0(i64 4, ptr %16) #12
  call void @llvm.lifetime.end.p0(i64 4, ptr %15) #12
  call void @llvm.lifetime.end.p0(i64 4, ptr %14) #12
  call void @llvm.lifetime.end.p0(i64 4, ptr %13) #12
  ret i32 %122
}