; Function Attrs: null_pointer_is_valid sspstrong uwtable
define internal i32 @dissect_ICBAAccoServer_Disconnect_resp(ptr noundef %0, i32 noundef %1, ptr noundef %2, ptr noundef %3, ptr noundef %4, ptr noundef %5) #0 {
  %7 = alloca i32, align 4
  %8 = alloca i32, align 4
  %9 = alloca i32, align 4
  call void @llvm.lifetime.start.p0(i64 4, ptr nonnull %7) #12
  call void @llvm.lifetime.start.p0(i64 4, ptr nonnull %8) #12
  call void @llvm.lifetime.start.p0(i64 4, ptr nonnull %9) #12
  store i32 0, ptr %9, align 4
  %10 = getelementptr inbounds nuw i8, ptr %4, i64 64
  %11 = load ptr, ptr %10, align 8
  %12 = getelementptr inbounds nuw i8, ptr %11, i64 80
  %13 = load ptr, ptr %12, align 8
  %14 = tail call i32 @dissect_dcom_that(ptr noundef %0, i32 noundef %1, ptr noundef %2, ptr noundef %3, ptr noundef %4, ptr noundef %5)
  %15 = icmp eq ptr %13, null
  br i1 %15, label %16, label %18

16:                                               ; preds = %6
  %17 = tail call ptr @expert_add_info(ptr noundef %2, ptr noundef null, ptr noundef nonnull @ei_cba_acco_no_request_info)
  br label %18

18:                                               ; preds = %16, %6
  %19 = load i32, ptr @hf_cba_acco_dcom_call, align 4
  %20 = tail call ptr @proto_tree_add_boolean(ptr noundef %3, i32 noundef %19, ptr noundef %0, i32 noundef %14, i32 noundef 0, i64 noundef 0)
  %.not.i = icmp eq ptr %20, null
  br i1 %.not.i, label %proto_item_set_generated.exit, label %21

21:                                               ; preds = %18
  %22 = getelementptr inbounds nuw i8, ptr %20, i64 40
  %23 = load ptr, ptr %22, align 8
  %.not5.i = icmp eq ptr %23, null
  br i1 %.not5.i, label %proto_item_set_generated.exit, label %24

24:                                               ; preds = %21
  %25 = getelementptr inbounds nuw i8, ptr %23, i64 28
  %26 = load i32, ptr %25, align 4
  %27 = or i32 %26, 2
  store i32 %27, ptr %25, align 4
  br label %proto_item_set_generated.exit

proto_item_set_generated.exit:                    ; preds = %18, %21, %24
  %28 = getelementptr inbounds nuw i8, ptr %2, i64 408
  %29 = load ptr, ptr %28, align 8
  %30 = load i32, ptr @proto_ICBAAccoMgt, align 4
  tail call void @p_add_proto_data(ptr noundef %29, ptr noundef %2, i32 noundef %30, i32 noundef 0, ptr noundef nonnull inttoptr (i64 1 to ptr))
  %31 = call i32 @dissect_dcom_dcerpc_pointer(ptr noundef %0, i32 noundef %14, ptr noundef %2, ptr noundef %3, ptr noundef %4, ptr noundef %5, ptr noundef nonnull %8)
  %32 = load i32, ptr %8, align 4
  %.not = icmp eq i32 %32, 0
  br i1 %.not, label %.loopexit, label %33

33:                                               ; preds = %proto_item_set_generated.exit
  %34 = call i32 @dissect_dcom_dcerpc_array_size(ptr noundef %0, i32 noundef %31, ptr noundef %2, ptr noundef %3, ptr noundef %4, ptr noundef %5, ptr noundef nonnull %9)
  %35 = load i32, ptr %9, align 4
  %.not5560 = icmp eq i32 %35, 0
  br i1 %.not5560, label %.loopexit, label %.lr.ph

.lr.ph:                                           ; preds = %33
  %36 = add i32 %35, -1
  %37 = getelementptr inbounds nuw i8, ptr %13, i64 16
  %38 = getelementptr inbounds nuw i8, ptr %2, i64 20
  br i1 %15, label %cba_connection_disconnect.exit.us, label %.lr.ph.split

cba_connection_disconnect.exit.us:                ; preds = %.lr.ph, %cba_connection_disconnect.exit.us
  %39 = phi i32 [ %42, %cba_connection_disconnect.exit.us ], [ %36, %.lr.ph ]
  %.162.us = phi i32 [ %40, %cba_connection_disconnect.exit.us ], [ %34, %.lr.ph ]
  %.05161.us = phi i32 [ %41, %cba_connection_disconnect.exit.us ], [ 1, %.lr.ph ]
  %40 = call i32 @dissect_dcom_indexed_HRESULT(ptr noundef %0, i32 noundef %.162.us, ptr noundef %2, ptr noundef %3, ptr noundef %4, ptr noundef %5, ptr noundef nonnull %7, i32 noundef %.05161.us)
  %41 = add i32 %.05161.us, 1
  %42 = add i32 %39, -1
  %.not55.us = icmp eq i32 %39, 0
  br i1 %.not55.us, label %.loopexit, label %cba_connection_disconnect.exit.us, !llvm.loop !33

.lr.ph.split:                                     ; preds = %.lr.ph, %cba_connection_disconnect.exit
  %indvars.iv = phi i64 [ %indvars.iv.next, %cba_connection_disconnect.exit ], [ 1, %.lr.ph ]
  %43 = phi i32 [ %61, %cba_connection_disconnect.exit ], [ %36, %.lr.ph ]
  %.162 = phi i32 [ %45, %cba_connection_disconnect.exit ], [ %34, %.lr.ph ]
  %44 = trunc nuw i64 %indvars.iv to i32
  %45 = call i32 @dissect_dcom_indexed_HRESULT(ptr noundef %0, i32 noundef %.162, ptr noundef %2, ptr noundef %3, ptr noundef %4, ptr noundef %5, ptr noundef nonnull %7, i32 noundef %44)
  %46 = load i32, ptr %13, align 8
  %47 = zext i32 %46 to i64
  %.not57 = icmp samesign ugt i64 %indvars.iv, %47
  br i1 %.not57, label %cba_connection_disconnect.exit, label %48

48:                                               ; preds = %.lr.ph.split
  %49 = load ptr, ptr %37, align 8
  %50 = getelementptr ptr, ptr %49, i64 %indvars.iv
  %51 = getelementptr i8, ptr %50, i64 -8
  %52 = load ptr, ptr %51, align 8
  %.not58 = icmp eq ptr %52, null
  br i1 %.not58, label %cba_connection_disconnect.exit, label %53

53:                                               ; preds = %48
  %54 = getelementptr inbounds nuw i8, ptr %52, i64 28
  %55 = load i32, ptr %54, align 4
  %56 = icmp eq i32 %55, 0
  %57 = load i32, ptr %38, align 4
  br i1 %56, label %.thread.i, label %58

.thread.i:                                        ; preds = %53
  store i32 %57, ptr %54, align 4
  br label %cba_connection_disconnect.exit

58:                                               ; preds = %53
  %.not.i59 = icmp eq i32 %55, %57
  br i1 %.not.i59, label %cba_connection_disconnect.exit, label %59

59:                                               ; preds = %58
  %60 = call ptr (ptr, ptr, ptr, ptr, ...) @expert_add_info_format(ptr noundef %2, ptr noundef null, ptr noundef nonnull @ei_cba_acco_disconnect, ptr noundef nonnull @.str.318, i32 noundef %55)
  br label %cba_connection_disconnect.exit

cba_connection_disconnect.exit:                   ; preds = %59, %58, %.thread.i, %48, %.lr.ph.split
  %indvars.iv.next = add nuw nsw i64 %indvars.iv, 1
  %61 = add i32 %43, -1
  %.not55 = icmp eq i32 %43, 0
  br i1 %.not55, label %.loopexit, label %.lr.ph.split, !llvm.loop !33

.loopexit:                                        ; preds = %cba_connection_disconnect.exit, %cba_connection_disconnect.exit.us, %33, %proto_item_set_generated.exit
  %.0 = phi i32 [ %31, %proto_item_set_generated.exit ], [ %34, %33 ], [ %40, %cba_connection_disconnect.exit.us ], [ %45, %cba_connection_disconnect.exit ]
  %62 = call i32 @dissect_dcom_HRESULT(ptr noundef %0, i32 noundef %.0, ptr noundef %2, ptr noundef %3, ptr noundef %4, ptr noundef %5, ptr noundef nonnull %7)
  %63 = getelementptr inbounds nuw i8, ptr %2, i64 8
  %64 = load ptr, ptr %63, align 8
  %65 = load i32, ptr %9, align 4
  %66 = load i32, ptr %7, align 4
  %67 = call ptr @val_to_str(i32 noundef %66, ptr noundef nonnull @dcom_hresult_vals, ptr noundef nonnull @.str.259)
  call void (ptr, i32, ptr, ...) @col_append_fstr(ptr noundef %64, i32 noundef 25, ptr noundef nonnull @.str.262, i32 noundef %65, ptr noundef %67)
  call void @llvm.lifetime.end.p0(i64 4, ptr nonnull %9) #12
  call void @llvm.lifetime.end.p0(i64 4, ptr nonnull %8) #12
  call void @llvm.lifetime.end.p0(i64 4, ptr nonnull %7) #12
  ret i32 %62
}